; Function Attrs: nounwind uwtable
define dso_local i32 @cmd_sparse_checkout(i32 noundef %0, ptr noundef %1, ptr noundef %2, ptr noundef %3) local_unnamed_addr #0 {
  %5 = alloca ptr, align 8
  %6 = alloca [8 x %struct.option], align 16
  call void @llvm.lifetime.start.p0(i64 8, ptr nonnull %5) #13
  store ptr null, ptr %5, align 8, !tbaa !4
  call void @llvm.lifetime.start.p0(i64 704, ptr nonnull %6) #13
  store i32 4, ptr %6, align 16, !tbaa !8
  %7 = getelementptr inbounds nuw i8, ptr %6, i64 4
  store i32 0, ptr %7, align 4, !tbaa !13
  %8 = getelementptr inbounds nuw i8, ptr %6, i64 8
  store ptr @.str, ptr %8, align 8, !tbaa !14
  %9 = getelementptr inbounds nuw i8, ptr %6, i64 16
  store ptr %5, ptr %9, align 16, !tbaa !15
  %10 = getelementptr inbounds nuw i8, ptr %6, i64 24
  %11 = getelementptr inbounds nuw i8, ptr %6, i64 80
  call void @llvm.memset.p0.i64(ptr noundef nonnull align 8 dereferenceable(56) %10, i8 0, i64 56, i1 false)
  store ptr @sparse_checkout_list, ptr %11, align 16, !tbaa !16
  %12 = getelementptr inbounds nuw i8, ptr %6, i64 88
  store i32 4, ptr %12, align 8, !tbaa !8
  %13 = getelementptr inbounds nuw i8, ptr %6, i64 92
  store i32 0, ptr %13, align 4, !tbaa !13
  %14 = getelementptr inbounds nuw i8, ptr %6, i64 96
  store ptr @.str.1, ptr %14, align 16, !tbaa !14
  %15 = getelementptr inbounds nuw i8, ptr %6, i64 104
  store ptr %5, ptr %15, align 8, !tbaa !15
  %16 = getelementptr inbounds nuw i8, ptr %6, i64 112
  %17 = getelementptr inbounds nuw i8, ptr %6, i64 168
  call void @llvm.memset.p0.i64(ptr noundef nonnull align 16 dereferenceable(56) %16, i8 0, i64 56, i1 false)
  store ptr @sparse_checkout_init, ptr %17, align 8, !tbaa !16
  %18 = getelementptr inbounds nuw i8, ptr %6, i64 176
  store i32 4, ptr %18, align 16, !tbaa !8
  %19 = getelementptr inbounds nuw i8, ptr %6, i64 180
  store i32 0, ptr %19, align 4, !tbaa !13
  %20 = getelementptr inbounds nuw i8, ptr %6, i64 184
  store ptr @.str.2, ptr %20, align 8, !tbaa !14
  %21 = getelementptr inbounds nuw i8, ptr %6, i64 192
  store ptr %5, ptr %21, align 16, !tbaa !15
  %22 = getelementptr inbounds nuw i8, ptr %6, i64 200
  %23 = getelementptr inbounds nuw i8, ptr %6, i64 256
  call void @llvm.memset.p0.i64(ptr noundef nonnull align 8 dereferenceable(56) %22, i8 0, i64 56, i1 false)
  store ptr @sparse_checkout_set, ptr %23, align 16, !tbaa !16
  %24 = getelementptr inbounds nuw i8, ptr %6, i64 264
  store i32 4, ptr %24, align 8, !tbaa !8
  %25 = getelementptr inbounds nuw i8, ptr %6, i64 268
  store i32 0, ptr %25, align 4, !tbaa !13
  %26 = getelementptr inbounds nuw i8, ptr %6, i64 272
  store ptr @.str.3, ptr %26, align 16, !tbaa !14
  %27 = getelementptr inbounds nuw i8, ptr %6, i64 280
  store ptr %5, ptr %27, align 8, !tbaa !15
  %28 = getelementptr inbounds nuw i8, ptr %6, i64 288
  %29 = getelementptr inbounds nuw i8, ptr %6, i64 344
  call void @llvm.memset.p0.i64(ptr noundef nonnull align 16 dereferenceable(56) %28, i8 0, i64 56, i1 false)
  store ptr @sparse_checkout_add, ptr %29, align 8, !tbaa !16
  %30 = getelementptr inbounds nuw i8, ptr %6, i64 352
  store i32 4, ptr %30, align 16, !tbaa !8
  %31 = getelementptr inbounds nuw i8, ptr %6, i64 356
  store i32 0, ptr %31, align 4, !tbaa !13
  %32 = getelementptr inbounds nuw i8, ptr %6, i64 360
  store ptr @.str.4, ptr %32, align 8, !tbaa !14
  %33 = getelementptr inbounds nuw i8, ptr %6, i64 368
  store ptr %5, ptr %33, align 16, !tbaa !15
  %34 = getelementptr inbounds nuw i8, ptr %6, i64 376
  %35 = getelementptr inbounds nuw i8, ptr %6, i64 432
  call void @llvm.memset.p0.i64(ptr noundef nonnull align 8 dereferenceable(56) %34, i8 0, i64 56, i1 false)
  store ptr @sparse_checkout_reapply, ptr %35, align 16, !tbaa !16
  %36 = getelementptr inbounds nuw i8, ptr %6, i64 440
  store i32 4, ptr %36, align 8, !tbaa !8
  %37 = getelementptr inbounds nuw i8, ptr %6, i64 444
  store i32 0, ptr %37, align 4, !tbaa !13
  %38 = getelementptr inbounds nuw i8, ptr %6, i64 448
  store ptr @.str.5, ptr %38, align 16, !tbaa !14
  %39 = getelementptr inbounds nuw i8, ptr %6, i64 456
  store ptr %5, ptr %39, align 8, !tbaa !15
  %40 = getelementptr inbounds nuw i8, ptr %6, i64 464
  %41 = getelementptr inbounds nuw i8, ptr %6, i64 520
  call void @llvm.memset.p0.i64(ptr noundef nonnull align 16 dereferenceable(56) %40, i8 0, i64 56, i1 false)
  store ptr @sparse_checkout_disable, ptr %41, align 8, !tbaa !16
  %42 = getelementptr inbounds nuw i8, ptr %6, i64 528
  store i32 4, ptr %42, align 16, !tbaa !8
  %43 = getelementptr inbounds nuw i8, ptr %6, i64 532
  store i32 0, ptr %43, align 4, !tbaa !13
  %44 = getelementptr inbounds nuw i8, ptr %6, i64 536
  store ptr @.str.6, ptr %44, align 8, !tbaa !14
  %45 = getelementptr inbounds nuw i8, ptr %6, i64 544
  store ptr %5, ptr %45, align 16, !tbaa !15
  %46 = getelementptr inbounds nuw i8, ptr %6, i64 552
  %47 = getelementptr inbounds nuw i8, ptr %6, i64 608
  call void @llvm.memset.p0.i64(ptr noundef nonnull align 8 dereferenceable(56) %46, i8 0, i64 56, i1 false)
  store ptr @sparse_checkout_check_rules, ptr %47, align 16, !tbaa !16
  %48 = getelementptr inbounds nuw i8, ptr %6, i64 616
  call void @llvm.memset.p0.i64(ptr noundef nonnull align 8 dereferenceable(88) %48, i8 0, i64 88, i1 false)
  %49 = call i32 @parse_options(i32 noundef %0, ptr noundef %1, ptr noundef %2, ptr noundef nonnull %6, ptr noundef nonnull @builtin_sparse_checkout_usage, i32 noundef 0) #13
  %50 = load ptr, ptr @the_repository, align 8, !tbaa !17
  call void @repo_config(ptr noundef %50, ptr noundef nonnull @git_default_config, ptr noundef null) #13
  %51 = load ptr, ptr @the_repository, align 8, !tbaa !17
  call void @prepare_repo_settings(ptr noundef %51) #13
  %52 = load ptr, ptr @the_repository, align 8, !tbaa !17
  %53 = getelementptr inbounds nuw i8, ptr %52, i64 280
  store i32 0, ptr %53, align 8, !tbaa !19
  %54 = load ptr, ptr %5, align 8, !tbaa !4
  %55 = call i32 %54(i32 noundef %49, ptr noundef %1, ptr noundef %2, ptr noundef %3) #13
  call void @llvm.lifetime.end.p0(i64 704, ptr nonnull %6) #13
  call void @llvm.lifetime.end.p0(i64 8, ptr nonnull %5) #13
  ret i32 %55
}